; Function Attrs: mustprogress nofree norecurse nosync nounwind willreturn memory(read, inaccessiblemem: none) uwtable
define dso_local noundef i32 @_ZNK7testing8UnitTest21total_test_case_countEv(ptr noundef nonnull readonly align 8 captures(none) dereferenceable(72) %0) local_unnamed_addr #24 align 2 {
  %2 = getelementptr inbounds nuw i8, ptr %0, i64 64
  %3 = load ptr, ptr %2, align 8, !tbaa !57
  %4 = getelementptr inbounds nuw i8, ptr %3, i64 184
  %5 = getelementptr inbounds nuw i8, ptr %3, i64 192
  %6 = load ptr, ptr %5, align 8, !tbaa !714
  %7 = load ptr, ptr %4, align 8, !tbaa !715
  %8 = ptrtoint ptr %6 to i64
  %9 = ptrtoint ptr %7 to i64
  %10 = sub i64 %8, %9
  %11 = lshr exact i64 %10, 3
  %12 = trunc i64 %11 to i32
  ret i32 %12
}